target datalayout = "e-m:e-p270:32:32-p271:32:32-p272:64:64-i64:64-i128:128-f80:128-n8:16:32:64-S128"
target triple = "x86_64-pc-linux-gnu"

@.str = private unnamed_addr constant [74 x i8] c"%s (%lu) must be less than or equal to ergonomic PLAB maximum size (%lu)\0A\00", align 1
@.str.29 = private unnamed_addr constant [77 x i8] c"%s (%lu) must be greater than or equal to ergonomic PLAB minimum size (%lu)\0A\00", align 1

; Function Attrs: mustprogress nounwind uwtable
define hidden noundef i32 @_Z17MaxPLABSizeBoundsPKcmb(ptr noundef %0, i64 noundef %1, i1 noundef zeroext %2) #1 {
  %4 = alloca i32, align 4
  %5 = alloca ptr, align 8
  %6 = alloca i64, align 8
  %7 = alloca i8, align 1
  store ptr %0, ptr %5, align 8
  store i64 %1, ptr %6, align 8
  %8 = zext i1 %2 to i8
  store i8 %8, ptr %7, align 1
  %9 = call noundef zeroext i1 @_ZN8GCConfig14is_gc_selectedEN13CollectedHeap4NameE(i32 noundef 3)
  br i1 %9, label %12, label %10

10:                                               ; preds = %3
  %11 = call noundef zeroext i1 @_ZN8GCConfig14is_gc_selectedEN13CollectedHeap4NameE(i32 noundef 2)
  br i1 %11, label %12, label %22

12:                                               ; preds = %10, %3
  %13 = load i64, ptr %6, align 8
  %14 = call noundef i64 @_ZN4PLAB8max_sizeEv()
  %15 = icmp ugt i64 %13, %14
  br i1 %15, label %16, label %22

16:                                               ; preds = %12
  %17 = load i8, ptr %7, align 1
  %18 = trunc i8 %17 to i1
  %19 = load ptr, ptr %5, align 8
  %20 = load i64, ptr %6, align 8
  %21 = call noundef i64 @_ZN4PLAB8max_sizeEv()
  call void (i1, ptr, ...) @_ZN7JVMFlag10printErrorEbPKcz(i1 noundef zeroext %18, ptr noundef @.str, ptr noundef %19, i64 noundef %20, i64 noundef %21)
  store i32 6, ptr %4, align 4
  br label %23

22:                                               ; preds = %12, %10
  store i32 0, ptr %4, align 4
  br label %23

23:                                               ; preds = %22, %16
  %24 = load i32, ptr %4, align 4
  ret i32 %24
}

; Function Attrs: mustprogress nounwind uwtable
define internal noundef i32 @_ZL17MinPLABSizeBoundsPKcmb(ptr noundef %0, i64 noundef %1, i1 noundef zeroext %2) #1 {
  %4 = alloca i32, align 4
  %5 = alloca ptr, align 8
  %6 = alloca i64, align 8
  %7 = alloca i8, align 1
  store ptr %0, ptr %5, align 8
  store i64 %1, ptr %6, align 8
  %8 = zext i1 %2 to i8
  store i8 %8, ptr %7, align 1
  %9 = call noundef zeroext i1 @_ZN8GCConfig14is_gc_selectedEN13CollectedHeap4NameE(i32 noundef 3)
  br i1 %9, label %12, label %10

10:                                               ; preds = %3
  %11 = call noundef zeroext i1 @_ZN8GCConfig14is_gc_selectedEN13CollectedHeap4NameE(i32 noundef 2)
  br i1 %11, label %12, label %22

12:                                               ; preds = %10, %3
  %13 = load i64, ptr %6, align 8
  %14 = call noundef i64 @_ZN4PLAB8min_sizeEv()
  %15 = icmp ult i64 %13, %14
  br i1 %15, label %16, label %22

16:                                               ; preds = %12
  %17 = load i8, ptr %7, align 1
  %18 = trunc i8 %17 to i1
  %19 = load ptr, ptr %5, align 8
  %20 = load i64, ptr %6, align 8
  %21 = call noundef i64 @_ZN4PLAB8min_sizeEv()
  call void (i1, ptr, ...) @_ZN7JVMFlag10printErrorEbPKcz(i1 noundef zeroext %18, ptr noundef @.str.29, ptr noundef %19, i64 noundef %20, i64 noundef %21)
  store i32 6, ptr %4, align 4
  br label %23

22:                                               ; preds = %12, %10
  store i32 0, ptr %4, align 4
  br label %23

23:                                               ; preds = %22, %16
  %24 = load i32, ptr %4, align 4
  ret i32 %24
}

; Function Attrs: mustprogress nounwind uwtable
define internal noundef i32 @_ZL20MinMaxPLABSizeBoundsPKcmb(ptr noundef %0, i64 noundef %1, i1 noundef zeroext %2) #1 {
  %4 = alloca i32, align 4
  %5 = alloca ptr, align 8
  %6 = alloca i64, align 8
  %7 = alloca i8, align 1
  %8 = alloca i32, align 4
  store ptr %0, ptr %5, align 8
  store i64 %1, ptr %6, align 8
  %9 = zext i1 %2 to i8
  store i8 %9, ptr %7, align 1
  %10 = load ptr, ptr %5, align 8
  %11 = load i64, ptr %6, align 8
  %12 = load i8, ptr %7, align 1
  %13 = trunc i8 %12 to i1
  %14 = call noundef i32 @_ZL17MinPLABSizeBoundsPKcmb(ptr noundef %10, i64 noundef %11, i1 noundef zeroext %13)
  store i32 %14, ptr %8, align 4
  %15 = load i32, ptr %8, align 4
  %16 = icmp eq i32 %15, 0
  br i1 %16, label %17, label %23

17:                                               ; preds = %3
  %18 = load ptr, ptr %5, align 8
  %19 = load i64, ptr %6, align 8
  %20 = load i8, ptr %7, align 1
  %21 = trunc i8 %20 to i1
  %22 = call noundef i32 @_Z17MaxPLABSizeBoundsPKcmb(ptr noundef %18, i64 noundef %19, i1 noundef zeroext %21)
  store i32 %22, ptr %4, align 4
  br label %25

23:                                               ; preds = %3
  %24 = load i32, ptr %8, align 4
  store i32 %24, ptr %4, align 4
  br label %25

25:                                               ; preds = %23, %17
  %26 = load i32, ptr %4, align 4
  ret i32 %26
}