; Function Attrs: mustprogress nounwind uwtable
define internal fastcc noundef range(i32 0, 7) i32 @_ZL20MinMaxPLABSizeBoundsPKcmb(ptr noundef %0, i64 noundef %1, i1 noundef zeroext %2) unnamed_addr #0 {
  %4 = tail call noundef zeroext i1 @_ZN8GCConfig14is_gc_selectedEN13CollectedHeap4NameE(i32 noundef 3) #4
  br i1 %4, label %7, label %5

5:                                                ; preds = %3
  %6 = tail call noundef zeroext i1 @_ZN8GCConfig14is_gc_selectedEN13CollectedHeap4NameE(i32 noundef 2) #4
  br i1 %6, label %7, label %11

7:                                                ; preds = %5, %3
  %8 = tail call noundef i64 @_ZN4PLAB8min_sizeEv() #4
  %9 = icmp ugt i64 %8, %1
  br i1 %9, label %_ZL17MinPLABSizeBoundsPKcmb.exit, label %11

_ZL17MinPLABSizeBoundsPKcmb.exit:                 ; preds = %7
  %10 = tail call noundef i64 @_ZN4PLAB8min_sizeEv() #4
  tail call void (i1, ptr, ...) @_ZN7JVMFlag10printErrorEbPKcz(i1 noundef zeroext %2, ptr noundef nonnull @.str.29, ptr noundef %0, i64 noundef %1, i64 noundef %10) #4
  br label %_Z17MaxPLABSizeBoundsPKcmb.exit

11:                                               ; preds = %7, %5
  %12 = tail call noundef zeroext i1 @_ZN8GCConfig14is_gc_selectedEN13CollectedHeap4NameE(i32 noundef 3) #4
  br i1 %12, label %15, label %13

13:                                               ; preds = %11
  %14 = tail call noundef zeroext i1 @_ZN8GCConfig14is_gc_selectedEN13CollectedHeap4NameE(i32 noundef 2) #4
  br i1 %14, label %15, label %_Z17MaxPLABSizeBoundsPKcmb.exit

15:                                               ; preds = %13, %11
  %16 = tail call noundef i64 @_ZN4PLAB8max_sizeEv() #4
  %17 = icmp ult i64 %16, %1
  br i1 %17, label %18, label %_Z17MaxPLABSizeBoundsPKcmb.exit

18:                                               ; preds = %15
  %19 = tail call noundef i64 @_ZN4PLAB8max_sizeEv() #4
  tail call void (i1, ptr, ...) @_ZN7JVMFlag10printErrorEbPKcz(i1 noundef zeroext %2, ptr noundef nonnull @.str, ptr noundef %0, i64 noundef %1, i64 noundef %19) #4
  br label %_Z17MaxPLABSizeBoundsPKcmb.exit

_Z17MaxPLABSizeBoundsPKcmb.exit:                  ; preds = %18, %15, %13, %_ZL17MinPLABSizeBoundsPKcmb.exit
  %.0 = phi i32 [ 6, %_ZL17MinPLABSizeBoundsPKcmb.exit ], [ 6, %18 ], [ 0, %15 ], [ 0, %13 ]
  ret i32 %.0
}